target datalayout = "e-m:e-p270:32:32-p271:32:32-p272:64:64-i64:64-i128:128-f80:128-n8:16:32:64-S128"
target triple = "x86_64-pc-linux-gnu"

%struct._cms_typehandler_struct = type { i32, ptr, ptr, ptr, ptr, ptr, i32 }
%struct._cms_io_handler = type { ptr, ptr, i32, i32, [256 x i8], ptr, ptr, ptr, ptr, ptr }

; Function Attrs: nounwind uwtable
define internal ptr @ReadMatrix(ptr noundef %0, ptr noundef %1, i32 noundef %2) #0 {
  %4 = alloca ptr, align 8
  %5 = alloca ptr, align 8
  %6 = alloca ptr, align 8
  %7 = alloca i32, align 4
  %8 = alloca [9 x double], align 16
  %9 = alloca [3 x double], align 16
  %10 = alloca ptr, align 8
  store ptr %0, ptr %5, align 8
  store ptr %1, ptr %6, align 8
  store i32 %2, ptr %7, align 4
  %11 = load ptr, ptr %6, align 8
  %12 = getelementptr inbounds %struct._cms_io_handler, ptr %11, i32 0, i32 6
  %13 = load ptr, ptr %12, align 8
  %14 = load ptr, ptr %6, align 8
  %15 = load i32, ptr %7, align 4
  %16 = call i32 %13(ptr noundef %14, i32 noundef %15)
  %17 = icmp ne i32 %16, 0
  br i1 %17, label %19, label %18

18:                                               ; preds = %3
  store ptr null, ptr %4, align 8
  br label %99

19:                                               ; preds = %3
  %20 = load ptr, ptr %6, align 8
  %21 = getelementptr inbounds [9 x double], ptr %8, i64 0, i64 0
  %22 = call i32 @_cmsRead15Fixed16Number(ptr noundef %20, ptr noundef %21)
  %23 = icmp ne i32 %22, 0
  br i1 %23, label %25, label %24

24:                                               ; preds = %19
  store ptr null, ptr %4, align 8
  br label %99

25:                                               ; preds = %19
  %26 = load ptr, ptr %6, align 8
  %27 = getelementptr inbounds [9 x double], ptr %8, i64 0, i64 1
  %28 = call i32 @_cmsRead15Fixed16Number(ptr noundef %26, ptr noundef %27)
  %29 = icmp ne i32 %28, 0
  br i1 %29, label %31, label %30

30:                                               ; preds = %25
  store ptr null, ptr %4, align 8
  br label %99

31:                                               ; preds = %25
  %32 = load ptr, ptr %6, align 8
  %33 = getelementptr inbounds [9 x double], ptr %8, i64 0, i64 2
  %34 = call i32 @_cmsRead15Fixed16Number(ptr noundef %32, ptr noundef %33)
  %35 = icmp ne i32 %34, 0
  br i1 %35, label %37, label %36

36:                                               ; preds = %31
  store ptr null, ptr %4, align 8
  br label %99

37:                                               ; preds = %31
  %38 = load ptr, ptr %6, align 8
  %39 = getelementptr inbounds [9 x double], ptr %8, i64 0, i64 3
  %40 = call i32 @_cmsRead15Fixed16Number(ptr noundef %38, ptr noundef %39)
  %41 = icmp ne i32 %40, 0
  br i1 %41, label %43, label %42

42:                                               ; preds = %37
  store ptr null, ptr %4, align 8
  br label %99

43:                                               ; preds = %37
  %44 = load ptr, ptr %6, align 8
  %45 = getelementptr inbounds [9 x double], ptr %8, i64 0, i64 4
  %46 = call i32 @_cmsRead15Fixed16Number(ptr noundef %44, ptr noundef %45)
  %47 = icmp ne i32 %46, 0
  br i1 %47, label %49, label %48

48:                                               ; preds = %43
  store ptr null, ptr %4, align 8
  br label %99

49:                                               ; preds = %43
  %50 = load ptr, ptr %6, align 8
  %51 = getelementptr inbounds [9 x double], ptr %8, i64 0, i64 5
  %52 = call i32 @_cmsRead15Fixed16Number(ptr noundef %50, ptr noundef %51)
  %53 = icmp ne i32 %52, 0
  br i1 %53, label %55, label %54

54:                                               ; preds = %49
  store ptr null, ptr %4, align 8
  br label %99

55:                                               ; preds = %49
  %56 = load ptr, ptr %6, align 8
  %57 = getelementptr inbounds [9 x double], ptr %8, i64 0, i64 6
  %58 = call i32 @_cmsRead15Fixed16Number(ptr noundef %56, ptr noundef %57)
  %59 = icmp ne i32 %58, 0
  br i1 %59, label %61, label %60

60:                                               ; preds = %55
  store ptr null, ptr %4, align 8
  br label %99

61:                                               ; preds = %55
  %62 = load ptr, ptr %6, align 8
  %63 = getelementptr inbounds [9 x double], ptr %8, i64 0, i64 7
  %64 = call i32 @_cmsRead15Fixed16Number(ptr noundef %62, ptr noundef %63)
  %65 = icmp ne i32 %64, 0
  br i1 %65, label %67, label %66

66:                                               ; preds = %61
  store ptr null, ptr %4, align 8
  br label %99

67:                                               ; preds = %61
  %68 = load ptr, ptr %6, align 8
  %69 = getelementptr inbounds [9 x double], ptr %8, i64 0, i64 8
  %70 = call i32 @_cmsRead15Fixed16Number(ptr noundef %68, ptr noundef %69)
  %71 = icmp ne i32 %70, 0
  br i1 %71, label %73, label %72

72:                                               ; preds = %67
  store ptr null, ptr %4, align 8
  br label %99

73:                                               ; preds = %67
  %74 = load ptr, ptr %6, align 8
  %75 = getelementptr inbounds [3 x double], ptr %9, i64 0, i64 0
  %76 = call i32 @_cmsRead15Fixed16Number(ptr noundef %74, ptr noundef %75)
  %77 = icmp ne i32 %76, 0
  br i1 %77, label %79, label %78

78:                                               ; preds = %73
  store ptr null, ptr %4, align 8
  br label %99

79:                                               ; preds = %73
  %80 = load ptr, ptr %6, align 8
  %81 = getelementptr inbounds [3 x double], ptr %9, i64 0, i64 1
  %82 = call i32 @_cmsRead15Fixed16Number(ptr noundef %80, ptr noundef %81)
  %83 = icmp ne i32 %82, 0
  br i1 %83, label %85, label %84

84:                                               ; preds = %79
  store ptr null, ptr %4, align 8
  br label %99

85:                                               ; preds = %79
  %86 = load ptr, ptr %6, align 8
  %87 = getelementptr inbounds [3 x double], ptr %9, i64 0, i64 2
  %88 = call i32 @_cmsRead15Fixed16Number(ptr noundef %86, ptr noundef %87)
  %89 = icmp ne i32 %88, 0
  br i1 %89, label %91, label %90

90:                                               ; preds = %85
  store ptr null, ptr %4, align 8
  br label %99

91:                                               ; preds = %85
  %92 = load ptr, ptr %5, align 8
  %93 = getelementptr inbounds %struct._cms_typehandler_struct, ptr %92, i32 0, i32 5
  %94 = load ptr, ptr %93, align 8
  %95 = getelementptr inbounds [9 x double], ptr %8, i64 0, i64 0
  %96 = getelementptr inbounds [3 x double], ptr %9, i64 0, i64 0
  %97 = call ptr @cmsStageAllocMatrix(ptr noundef %94, i32 noundef 3, i32 noundef 3, ptr noundef %95, ptr noundef %96)
  store ptr %97, ptr %10, align 8
  %98 = load ptr, ptr %10, align 8
  store ptr %98, ptr %4, align 8
  br label %99

99:                                               ; preds = %91, %90, %84, %78, %72, %66, %60, %54, %48, %42, %36, %30, %24, %18
  %100 = load ptr, ptr %4, align 8
  ret ptr %100
}