; Function Attrs: nounwind uwtable
define internal fastcc ptr @ReadMatrix(ptr nocapture noundef readonly %0, ptr noundef %1, i32 noundef %2) unnamed_addr #0 {
  %4 = alloca [9 x double], align 16
  %5 = alloca [3 x double], align 16
  %6 = getelementptr inbounds i8, ptr %1, i64 288
  %7 = load ptr, ptr %6, align 8
  %8 = tail call i32 %7(ptr noundef %1, i32 noundef %2) #13
  %.not = icmp eq i32 %8, 0
  br i1 %.not, label %47, label %9

9:                                                ; preds = %3
  %10 = call i32 @_cmsRead15Fixed16Number(ptr noundef nonnull %1, ptr noundef nonnull %4) #13
  %.not17 = icmp eq i32 %10, 0
  br i1 %.not17, label %47, label %11

11:                                               ; preds = %9
  %12 = getelementptr inbounds i8, ptr %4, i64 8
  %13 = call i32 @_cmsRead15Fixed16Number(ptr noundef nonnull %1, ptr noundef nonnull %12) #13
  %.not18 = icmp eq i32 %13, 0
  br i1 %.not18, label %47, label %14

14:                                               ; preds = %11
  %15 = getelementptr inbounds i8, ptr %4, i64 16
  %16 = call i32 @_cmsRead15Fixed16Number(ptr noundef nonnull %1, ptr noundef nonnull %15) #13
  %.not19 = icmp eq i32 %16, 0
  br i1 %.not19, label %47, label %17

17:                                               ; preds = %14
  %18 = getelementptr inbounds i8, ptr %4, i64 24
  %19 = call i32 @_cmsRead15Fixed16Number(ptr noundef nonnull %1, ptr noundef nonnull %18) #13
  %.not20 = icmp eq i32 %19, 0
  br i1 %.not20, label %47, label %20

20:                                               ; preds = %17
  %21 = getelementptr inbounds i8, ptr %4, i64 32
  %22 = call i32 @_cmsRead15Fixed16Number(ptr noundef nonnull %1, ptr noundef nonnull %21) #13
  %.not21 = icmp eq i32 %22, 0
  br i1 %.not21, label %47, label %23

23:                                               ; preds = %20
  %24 = getelementptr inbounds i8, ptr %4, i64 40
  %25 = call i32 @_cmsRead15Fixed16Number(ptr noundef nonnull %1, ptr noundef nonnull %24) #13
  %.not22 = icmp eq i32 %25, 0
  br i1 %.not22, label %47, label %26

26:                                               ; preds = %23
  %27 = getelementptr inbounds i8, ptr %4, i64 48
  %28 = call i32 @_cmsRead15Fixed16Number(ptr noundef nonnull %1, ptr noundef nonnull %27) #13
  %.not23 = icmp eq i32 %28, 0
  br i1 %.not23, label %47, label %29

29:                                               ; preds = %26
  %30 = getelementptr inbounds i8, ptr %4, i64 56
  %31 = call i32 @_cmsRead15Fixed16Number(ptr noundef nonnull %1, ptr noundef nonnull %30) #13
  %.not24 = icmp eq i32 %31, 0
  br i1 %.not24, label %47, label %32

32:                                               ; preds = %29
  %33 = getelementptr inbounds i8, ptr %4, i64 64
  %34 = call i32 @_cmsRead15Fixed16Number(ptr noundef nonnull %1, ptr noundef nonnull %33) #13
  %.not25 = icmp eq i32 %34, 0
  br i1 %.not25, label %47, label %35

35:                                               ; preds = %32
  %36 = call i32 @_cmsRead15Fixed16Number(ptr noundef nonnull %1, ptr noundef nonnull %5) #13
  %.not26 = icmp eq i32 %36, 0
  br i1 %.not26, label %47, label %37

37:                                               ; preds = %35
  %38 = getelementptr inbounds i8, ptr %5, i64 8
  %39 = call i32 @_cmsRead15Fixed16Number(ptr noundef nonnull %1, ptr noundef nonnull %38) #13
  %.not27 = icmp eq i32 %39, 0
  br i1 %.not27, label %47, label %40

40:                                               ; preds = %37
  %41 = getelementptr inbounds i8, ptr %5, i64 16
  %42 = call i32 @_cmsRead15Fixed16Number(ptr noundef nonnull %1, ptr noundef nonnull %41) #13
  %.not28 = icmp eq i32 %42, 0
  br i1 %.not28, label %47, label %43

43:                                               ; preds = %40
  %44 = getelementptr inbounds i8, ptr %0, i64 40
  %45 = load ptr, ptr %44, align 8
  %46 = call ptr @cmsStageAllocMatrix(ptr noundef %45, i32 noundef 3, i32 noundef 3, ptr noundef nonnull %4, ptr noundef nonnull %5) #13
  br label %47

47:                                               ; preds = %40, %37, %35, %32, %29, %26, %23, %20, %17, %14, %11, %9, %3, %43
  %.0 = phi ptr [ %46, %43 ], [ null, %3 ], [ null, %9 ], [ null, %11 ], [ null, %14 ], [ null, %17 ], [ null, %20 ], [ null, %23 ], [ null, %26 ], [ null, %29 ], [ null, %32 ], [ null, %35 ], [ null, %37 ], [ null, %40 ]
  ret ptr %.0
}